; Function Attrs: mustprogress uwtable
define void @_ZNK5arrow11RecordBatch8ToTensorEbbPNS_10MemoryPoolE(ptr dead_on_unwind noalias writable sret(%"class.arrow::Result.84") align 8 %0, ptr noundef nonnull align 8 dereferenceable(32) %1, i1 noundef zeroext %2, i1 noundef zeroext %3, ptr noundef %4) local_unnamed_addr #1 align 2 personality ptr @__gxx_personality_v0 {
  %6 = alloca %"class.std::shared_ptr.88", align 8
  %7 = alloca %"class.arrow::Status", align 8
  %8 = alloca %"class.arrow::Status", align 8
  call void @llvm.lifetime.start.p0(i64 16, ptr nonnull %6) #27
  call void @llvm.memset.p0.i64(ptr noundef nonnull align 8 dereferenceable(16) %6, i8 0, i64 16, i1 false)
  call void @llvm.lifetime.start.p0(i64 8, ptr nonnull %7) #27
  call void @llvm.lifetime.start.p0(i64 8, ptr nonnull %8) #27
  invoke void @_ZN5arrow8internal19RecordBatchToTensorERKNS_11RecordBatchEbbPNS_10MemoryPoolEPSt10shared_ptrINS_6TensorEE(ptr dead_on_unwind nonnull writable sret(%"class.arrow::Status") align 8 %8, ptr noundef nonnull align 8 dereferenceable(32) %1, i1 noundef zeroext %2, i1 noundef zeroext %3, ptr noundef %4, ptr noundef nonnull %6)
          to label %_ZN5arrow6StatusD2Ev.exit unwind label %18

_ZN5arrow6StatusD2Ev.exit:                        ; preds = %5
  call void @llvm.experimental.noalias.scope.decl(metadata !206)
  %9 = load ptr, ptr %8, align 8, !tbaa !85, !noalias !206
  store ptr %9, ptr %7, align 8, !tbaa !85, !alias.scope !206
  call void @llvm.lifetime.end.p0(i64 8, ptr nonnull %8) #27
  %10 = icmp eq ptr %9, null
  br i1 %10, label %.thread, label %11, !prof !88

11:                                               ; preds = %_ZN5arrow6StatusD2Ev.exit
  call void @_ZN5arrow6ResultISt10shared_ptrINS_6TensorEEEC2ERKNS_6StatusE(ptr noundef nonnull align 8 dereferenceable(24) %0, ptr noundef nonnull align 8 dereferenceable(8) %7) #27
  %12 = load ptr, ptr %7, align 8, !tbaa !85
  %.not.i6 = icmp eq ptr %12, null
  br i1 %.not.i6, label %25, label %13, !prof !88

13:                                               ; preds = %11
  %14 = getelementptr inbounds nuw i8, ptr %12, i64 1
  %15 = load i8, ptr %14, align 1, !tbaa !96, !range !103, !noundef !104
  %16 = trunc nuw i8 %15 to i1
  br i1 %16, label %25, label %17

17:                                               ; preds = %13
  call void @_ZN5arrow6Status11DeleteStateEv(ptr noundef nonnull align 8 dereferenceable(8) %7) #27
  br label %25

18:                                               ; preds = %5
  %19 = landingpad { ptr, i32 }
          cleanup
  call void @llvm.lifetime.end.p0(i64 8, ptr nonnull %8) #27
  call void @llvm.lifetime.end.p0(i64 8, ptr nonnull %7) #27
  call void @_ZNSt12__shared_ptrIN5arrow6TensorELN9__gnu_cxx12_Lock_policyE2EED2Ev(ptr noundef nonnull align 8 dereferenceable(16) %6) #27
  call void @llvm.lifetime.end.p0(i64 16, ptr nonnull %6) #27
  resume { ptr, i32 } %19

.thread:                                          ; preds = %_ZN5arrow6StatusD2Ev.exit
  call void @llvm.lifetime.end.p0(i64 8, ptr nonnull %7) #27
  store ptr null, ptr %0, align 8, !tbaa !85
  %20 = getelementptr inbounds nuw i8, ptr %0, i64 8
  %21 = load ptr, ptr %6, align 8, !tbaa !209
  store ptr %21, ptr %20, align 8, !tbaa !209
  %22 = getelementptr inbounds nuw i8, ptr %0, i64 16
  %23 = getelementptr inbounds nuw i8, ptr %6, i64 8
  %24 = load ptr, ptr %23, align 8, !tbaa !51
  store ptr %24, ptr %22, align 8, !tbaa !51
  br label %_ZNSt12__shared_ptrIN5arrow6TensorELN9__gnu_cxx12_Lock_policyE2EED2Ev.exit

25:                                               ; preds = %17, %13, %11
  call void @llvm.lifetime.end.p0(i64 8, ptr nonnull %7) #27
  %.phi.trans.insert = getelementptr inbounds nuw i8, ptr %6, i64 8
  %.pre = load ptr, ptr %.phi.trans.insert, align 8, !tbaa !51
  %.not.i.i = icmp eq ptr %.pre, null
  br i1 %.not.i.i, label %_ZNSt12__shared_ptrIN5arrow6TensorELN9__gnu_cxx12_Lock_policyE2EED2Ev.exit, label %26

26:                                               ; preds = %25
  %27 = getelementptr inbounds nuw i8, ptr %.pre, i64 8
  %28 = load atomic i64, ptr %27 acquire, align 8
  %29 = icmp eq i64 %28, 4294967297
  %30 = trunc i64 %28 to i32
  br i1 %29, label %31, label %39

31:                                               ; preds = %26
  store i32 0, ptr %27, align 8, !tbaa !53
  %32 = getelementptr inbounds nuw i8, ptr %.pre, i64 12
  store i32 0, ptr %32, align 4, !tbaa !55
  %33 = load ptr, ptr %.pre, align 8, !tbaa !56
  %34 = getelementptr inbounds nuw i8, ptr %33, i64 16
  %35 = load ptr, ptr %34, align 8
  call void %35(ptr noundef nonnull align 8 dereferenceable(16) %.pre) #27
  %36 = load ptr, ptr %.pre, align 8, !tbaa !56
  %37 = getelementptr inbounds nuw i8, ptr %36, i64 24
  %38 = load ptr, ptr %37, align 8
  call void %38(ptr noundef nonnull align 8 dereferenceable(16) %.pre) #27
  br label %_ZNSt12__shared_ptrIN5arrow6TensorELN9__gnu_cxx12_Lock_policyE2EED2Ev.exit

39:                                               ; preds = %26
  %40 = load i8, ptr @__libc_single_threaded, align 1, !tbaa !39
  %.not.i.i.i = icmp eq i8 %40, 0
  br i1 %.not.i.i.i, label %43, label %41

41:                                               ; preds = %39
  %42 = add nsw i32 %30, -1
  store i32 %42, ptr %27, align 4, !tbaa !52
  br label %_ZN9__gnu_cxx27__exchange_and_add_dispatchEPii.exit.i.i.i

43:                                               ; preds = %39
  %44 = atomicrmw volatile add ptr %27, i32 -1 acq_rel, align 4
  br label %_ZN9__gnu_cxx27__exchange_and_add_dispatchEPii.exit.i.i.i

_ZN9__gnu_cxx27__exchange_and_add_dispatchEPii.exit.i.i.i: ; preds = %43, %41
  %.0.i.i.i.i = phi i32 [ %30, %41 ], [ %44, %43 ]
  %45 = icmp eq i32 %.0.i.i.i.i, 1
  br i1 %45, label %46, label %_ZNSt12__shared_ptrIN5arrow6TensorELN9__gnu_cxx12_Lock_policyE2EED2Ev.exit, !prof !58

46:                                               ; preds = %_ZN9__gnu_cxx27__exchange_and_add_dispatchEPii.exit.i.i.i
  call void @_ZNSt16_Sp_counted_baseILN9__gnu_cxx12_Lock_policyE2EE24_M_release_last_use_coldEv(ptr noundef nonnull align 8 dereferenceable(16) %.pre) #27
  br label %_ZNSt12__shared_ptrIN5arrow6TensorELN9__gnu_cxx12_Lock_policyE2EED2Ev.exit

_ZNSt12__shared_ptrIN5arrow6TensorELN9__gnu_cxx12_Lock_policyE2EED2Ev.exit: ; preds = %.thread, %25, %31, %_ZN9__gnu_cxx27__exchange_and_add_dispatchEPii.exit.i.i.i, %46
  call void @llvm.lifetime.end.p0(i64 16, ptr nonnull %6) #27
  ret void
}